; Function Attrs: noinline nounwind sspstrong uwtable
define hidden void @rb_vm_lock_enter_body(ptr noundef writeonly captures(none) %0) local_unnamed_addr #1 {
  %2 = load ptr, ptr @ruby_current_vm_ptr, align 8, !tbaa !7
  %3 = getelementptr i8, ptr %2, i64 88
  %.val = load ptr, ptr %3, align 8, !tbaa !12
  %4 = load ptr, ptr @ruby_single_main_ractor, align 8, !tbaa !37
  %.not.i.i.i = icmp eq ptr %4, null
  br i1 %.not.i.i.i, label %5, label %vm_locked.exit.thread

5:                                                ; preds = %1
  %6 = tail call align 8 ptr @llvm.threadlocal.address.p0(ptr align 8 @ruby_current_ec)
  %7 = load ptr, ptr %6, align 8, !tbaa !38
  %8 = getelementptr i8, ptr %7, i64 48
  %.val.i.i.i = load ptr, ptr %8, align 8, !tbaa !40
  %.not.i.i.i.i = icmp eq ptr %.val.i.i.i, null
  br i1 %.not.i.i.i.i, label %vm_locked.exit, label %vm_locked.exit.thread7

vm_locked.exit:                                   ; preds = %5
  %9 = icmp eq ptr %.val, null
  br i1 %9, label %14, label %rb_current_ractor.exit

vm_locked.exit.thread7:                           ; preds = %5
  %10 = getelementptr inbounds nuw i8, ptr %.val.i.i.i, i64 24
  %11 = load ptr, ptr %10, align 8, !tbaa !48
  %12 = icmp eq ptr %.val, %11
  br i1 %12, label %14, label %18

vm_locked.exit.thread:                            ; preds = %1
  %13 = icmp eq ptr %.val, %4
  br i1 %13, label %14, label %rb_current_ractor.exit

14:                                               ; preds = %vm_locked.exit.thread7, %vm_locked.exit.thread, %vm_locked.exit
  %15 = getelementptr inbounds nuw i8, ptr %2, i64 96
  %16 = load i32, ptr %15, align 8, !tbaa !61
  %17 = add i32 %16, 1
  store i32 %17, ptr %15, align 8, !tbaa !61
  store i32 %17, ptr %0, align 4, !tbaa !62
  br label %21

18:                                               ; preds = %vm_locked.exit.thread7
  %19 = getelementptr inbounds nuw i8, ptr %.val.i.i.i, i64 24
  %20 = load ptr, ptr %19, align 8, !tbaa !48
  br label %rb_current_ractor.exit

rb_current_ractor.exit:                           ; preds = %vm_locked.exit, %vm_locked.exit.thread, %18
  %.0.i.i = phi ptr [ %20, %18 ], [ %4, %vm_locked.exit.thread ], [ null, %vm_locked.exit ]
  tail call fastcc void @vm_lock_enter(ptr noundef %.0.i.i, ptr noundef nonnull %2, i1 noundef zeroext false, i1 noundef zeroext false, ptr noundef %0)
  br label %21

21:                                               ; preds = %rb_current_ractor.exit, %14
  ret void
}